target datalayout = "e-m:e-p270:32:32-p271:32:32-p272:64:64-i64:64-i128:128-f80:128-n8:16:32:64-S128"
target triple = "x86_64-pc-linux-gnu"

%struct._zend_executor_globals = type { %struct._zval_struct, %struct._zval_struct, [32 x ptr], ptr, ptr, %struct._zend_array, %struct._zend_array, ptr, i32, i8, %struct._zval_struct, i32, ptr, ptr, ptr, ptr, ptr, ptr, i64, ptr, ptr, i32, ptr, i32, i64, i32, i32, i32, i8, i8, %struct.zend_atomic_bool_s, %struct.zend_atomic_bool_s, ptr, i64, ptr, ptr, %struct._zend_array, %struct._zend_array, i32, i8, %struct._zval_struct, %struct._zval_struct, %struct._zend_stack, %struct._zend_stack, %struct._zend_stack, ptr, i32, i32, i64, ptr, ptr, ptr, %struct._zend_objects_store, %struct._zend_lazy_objects_store, ptr, ptr, ptr, [3 x %struct._zend_op], ptr, i8, i8, i64, i32, i32, ptr, [16 x %struct._HashTableIterator], ptr, %union._zend_function, %struct._zend_op, %struct._zend_array, i64, %struct.zend_get_gc_buffer, ptr, ptr, ptr, i64, i8, i32, ptr, ptr, i64, %struct._zend_call_stack, i64, i64, %struct._zend_strtod_state, [6 x ptr] }
%struct.zend_atomic_bool_s = type { i8 }
%struct._zval_struct = type { %union._zend_value, %union.anon, %union.anon.2 }
%union._zend_value = type { i64 }
%union.anon = type { i32 }
%union.anon.2 = type { i32 }
%struct._zend_stack = type { i32, i32, i32, ptr }
%struct._zend_objects_store = type { ptr, i32, i32, i32 }
%struct._zend_lazy_objects_store = type { %struct._zend_array }
%struct._HashTableIterator = type { ptr, i32, i32 }
%union._zend_function = type { %struct._zend_op_array }
%struct._zend_op_array = type { i8, [3 x i8], i32, ptr, ptr, ptr, i32, i32, ptr, ptr, ptr, ptr, i32, ptr, i32, i32, i32, ptr, ptr, ptr, ptr, ptr, i32, i32, ptr, ptr, ptr, i32, i32, i32, i32, ptr, ptr, [6 x ptr] }
%struct._zend_op = type { ptr, %union._znode_op, %union._znode_op, %union._znode_op, i32, i32, i8, i8, i8, i8 }
%union._znode_op = type { i32 }
%struct._zend_array = type { %struct._zend_refcounted_h, %union.anon.4, i32, %union.anon.6, i32, i32, i32, i32, i64, ptr }
%struct._zend_refcounted_h = type { i32, %union.anon.3 }
%union.anon.3 = type { i32 }
%union.anon.4 = type { i32 }
%union.anon.6 = type { ptr }
%struct.zend_get_gc_buffer = type { ptr, ptr, ptr }
%struct._zend_call_stack = type { ptr, i64 }
%struct._zend_strtod_state = type { [8 x ptr], ptr, ptr }
%struct._zend_fcall_info_cache = type { ptr, ptr, ptr, ptr, ptr }
%struct._zend_llist = type { ptr, ptr, i64, i64, ptr, i8, ptr }
%struct._zend_execute_data = type { ptr, ptr, ptr, ptr, %struct._zval_struct, ptr, ptr, ptr, ptr }
%struct._php_sqlite3_db_object = type { i8, i8, ptr, ptr, ptr, %struct._zend_fcall_info_cache, %struct._zend_llist, %struct._zend_object }
%struct._zend_object = type { %struct._zend_refcounted_h, i32, i32, ptr, ptr, ptr, [1 x %struct._zval_struct] }
%struct.php_stream_sqlite3_data = type { ptr, i64, i64, i32 }
%struct._php_stream = type { ptr, ptr, %struct._php_stream_filter_chain, %struct._php_stream_filter_chain, ptr, ptr, %struct._zval_struct, i16, [16 x i8], i32, ptr, ptr, ptr, ptr, i64, ptr, i64, i64, i64, i64, ptr }
%struct._php_stream_filter_chain = type { ptr, ptr, ptr }

@executor_globals = external global %struct._zend_executor_globals, align 8
@.str.8 = private unnamed_addr constant [75 x i8] c"The SQLite3 object has not been correctly initialised or is already closed\00", align 1
@.str.27 = private unnamed_addr constant [5 x i8] c"main\00", align 1
@.str.28 = private unnamed_addr constant [3 x i8] c"rb\00", align 1
@.str.29 = private unnamed_addr constant [7 x i8] c"ssl|pl\00", align 1
@.str.30 = private unnamed_addr constant [24 x i8] c"Unable to open blob: %s\00", align 1
@.str.31 = private unnamed_addr constant [4 x i8] c"r+b\00", align 1

; Function Attrs: inlinehint nounwind uwtable
define internal ptr @php_sqlite3_db_from_obj(ptr noundef %0) #2 {
  %2 = alloca ptr, align 8
  store ptr %0, ptr %2, align 8, !tbaa !67
  %3 = load ptr, ptr %2, align 8, !tbaa !67
  %4 = getelementptr inbounds i8, ptr %3, i64 -128
  ret ptr %4
}

; Function Attrs: nounwind uwtable
define hidden void @zim_SQLite3_openBlob(ptr noundef %0, ptr noundef %1) #0 {
  %3 = alloca ptr, align 8
  %4 = alloca ptr, align 8
  %5 = alloca ptr, align 8
  %6 = alloca ptr, align 8
  %7 = alloca ptr, align 8
  %8 = alloca ptr, align 8
  %9 = alloca ptr, align 8
  %10 = alloca ptr, align 8
  %11 = alloca i64, align 8
  %12 = alloca i64, align 8
  %13 = alloca i64, align 8
  %14 = alloca i64, align 8
  %15 = alloca i64, align 8
  %16 = alloca i64, align 8
  %17 = alloca ptr, align 8
  %18 = alloca ptr, align 8
  %19 = alloca ptr, align 8
  %20 = alloca i32, align 4
  %21 = alloca ptr, align 8
  store ptr %0, ptr %3, align 8, !tbaa !4
  store ptr %1, ptr %4, align 8, !tbaa !9
  call void @llvm.lifetime.start.p0(i64 8, ptr %5) #15
  call void @llvm.lifetime.start.p0(i64 8, ptr %6) #15
  %22 = load ptr, ptr %3, align 8, !tbaa !4
  %23 = getelementptr inbounds nuw %struct._zend_execute_data, ptr %22, i32 0, i32 4
  store ptr %23, ptr %6, align 8, !tbaa !9
  call void @llvm.lifetime.start.p0(i64 8, ptr %7) #15
  call void @llvm.lifetime.start.p0(i64 8, ptr %8) #15
  call void @llvm.lifetime.start.p0(i64 8, ptr %9) #15
  store ptr @.str.27, ptr %9, align 8, !tbaa !62
  call void @llvm.lifetime.start.p0(i64 8, ptr %10) #15
  store ptr @.str.28, ptr %10, align 8, !tbaa !62
  call void @llvm.lifetime.start.p0(i64 8, ptr %11) #15
  call void @llvm.lifetime.start.p0(i64 8, ptr %12) #15
  call void @llvm.lifetime.start.p0(i64 8, ptr %13) #15
  call void @llvm.lifetime.start.p0(i64 8, ptr %14) #15
  call void @llvm.lifetime.start.p0(i64 8, ptr %15) #15
  store i64 1, ptr %15, align 8, !tbaa !11
  call void @llvm.lifetime.start.p0(i64 8, ptr %16) #15
  store i64 0, ptr %16, align 8, !tbaa !11
  call void @llvm.lifetime.start.p0(i64 8, ptr %17) #15
  store ptr null, ptr %17, align 8, !tbaa !128
  call void @llvm.lifetime.start.p0(i64 8, ptr %18) #15
  call void @llvm.lifetime.start.p0(i64 8, ptr %19) #15
  %24 = load ptr, ptr %6, align 8, !tbaa !9
  %25 = getelementptr inbounds nuw %struct._zval_struct, ptr %24, i32 0, i32 0
  %26 = load ptr, ptr %25, align 8, !tbaa !13
  %27 = call ptr @php_sqlite3_db_from_obj(ptr noundef %26)
  store ptr %27, ptr %5, align 8, !tbaa !14
  %28 = load ptr, ptr %3, align 8, !tbaa !4
  %29 = getelementptr inbounds nuw %struct._zend_execute_data, ptr %28, i32 0, i32 4
  %30 = getelementptr inbounds nuw %struct._zval_struct, ptr %29, i32 0, i32 2
  %31 = load i32, ptr %30, align 4, !tbaa !13
  %32 = call i32 (i32, ptr, ...) @zend_parse_parameters(i32 noundef %31, ptr noundef @.str.29, ptr noundef %7, ptr noundef %11, ptr noundef %8, ptr noundef %12, ptr noundef %14, ptr noundef %9, ptr noundef %13, ptr noundef %15)
  %33 = icmp eq i32 %32, -1
  br i1 %33, label %34, label %40

34:                                               ; preds = %2
  br label %35

35:                                               ; preds = %34
  %36 = load ptr, ptr getelementptr inbounds nuw (%struct._zend_executor_globals, ptr @executor_globals, i32 0, i32 54), align 8, !tbaa !16
  %37 = icmp ne ptr %36, null
  call void @llvm.assume(i1 %37)
  store i32 1, ptr %20, align 4
  br label %141

38:                                               ; No predecessors!
  br label %39

39:                                               ; preds = %38
  br label %40

40:                                               ; preds = %39, %2
  %41 = load ptr, ptr %5, align 8, !tbaa !14
  %42 = icmp ne ptr %41, null
  br i1 %42, label %43, label %48

43:                                               ; preds = %40
  %44 = load ptr, ptr %5, align 8, !tbaa !14
  %45 = getelementptr inbounds nuw %struct._php_sqlite3_db_object, ptr %44, i32 0, i32 0
  %46 = load i8, ptr %45, align 8, !tbaa !48, !range !59, !noundef !60
  %47 = trunc i8 %46 to i1
  br i1 %47, label %54, label %48

48:                                               ; preds = %43, %40
  call void (ptr, ptr, ...) @zend_throw_error(ptr noundef null, ptr noundef @.str.8)
  br label %49

49:                                               ; preds = %48
  %50 = load ptr, ptr getelementptr inbounds nuw (%struct._zend_executor_globals, ptr @executor_globals, i32 0, i32 54), align 8, !tbaa !16
  %51 = icmp ne ptr %50, null
  call void @llvm.assume(i1 %51)
  store i32 1, ptr %20, align 4
  br label %141

52:                                               ; No predecessors!
  br label %53

53:                                               ; preds = %52
  br label %54

54:                                               ; preds = %53, %43
  %55 = load i64, ptr %15, align 8, !tbaa !11
  %56 = and i64 %55, 2
  %57 = icmp ne i64 %56, 0
  %58 = select i1 %57, i32 1, i32 0
  %59 = sext i32 %58 to i64
  store i64 %59, ptr %16, align 8, !tbaa !11
  %60 = load ptr, ptr %5, align 8, !tbaa !14
  %61 = getelementptr inbounds nuw %struct._php_sqlite3_db_object, ptr %60, i32 0, i32 2
  %62 = load ptr, ptr %61, align 8, !tbaa !64
  %63 = load ptr, ptr %9, align 8, !tbaa !62
  %64 = load ptr, ptr %7, align 8, !tbaa !62
  %65 = load ptr, ptr %8, align 8, !tbaa !62
  %66 = load i64, ptr %14, align 8, !tbaa !11
  %67 = load i64, ptr %16, align 8, !tbaa !11
  %68 = trunc i64 %67 to i32
  %69 = call i32 @sqlite3_blob_open(ptr noundef %62, ptr noundef %63, ptr noundef %64, ptr noundef %65, i64 noundef %66, i32 noundef %68, ptr noundef %17)
  %70 = icmp ne i32 %69, 0
  br i1 %70, label %71, label %89

71:                                               ; preds = %54
  %72 = load ptr, ptr %5, align 8, !tbaa !14
  %73 = load ptr, ptr %5, align 8, !tbaa !14
  %74 = getelementptr inbounds nuw %struct._php_sqlite3_db_object, ptr %73, i32 0, i32 2
  %75 = load ptr, ptr %74, align 8, !tbaa !64
  %76 = call i32 @sqlite3_errcode(ptr noundef %75)
  %77 = load ptr, ptr %5, align 8, !tbaa !14
  %78 = getelementptr inbounds nuw %struct._php_sqlite3_db_object, ptr %77, i32 0, i32 2
  %79 = load ptr, ptr %78, align 8, !tbaa !64
  %80 = call ptr @sqlite3_errmsg(ptr noundef %79)
  call void (ptr, i32, ptr, ...) @php_sqlite3_error(ptr noundef %72, i32 noundef %76, ptr noundef @.str.30, ptr noundef %80)
  br label %81

81:                                               ; preds = %71
  br label %82

82:                                               ; preds = %81
  %83 = load ptr, ptr %4, align 8, !tbaa !9
  %84 = getelementptr inbounds nuw %struct._zval_struct, ptr %83, i32 0, i32 1
  store i32 2, ptr %84, align 8, !tbaa !13
  br label %85

85:                                               ; preds = %82
  br label %86

86:                                               ; preds = %85
  store i32 1, ptr %20, align 4
  br label %141

87:                                               ; No predecessors!
  br label %88

88:                                               ; preds = %87
  br label %89

89:                                               ; preds = %88, %54
  %90 = call noalias ptr @_emalloc_32()
  store ptr %90, ptr %18, align 8, !tbaa !70
  %91 = load ptr, ptr %17, align 8, !tbaa !128
  %92 = load ptr, ptr %18, align 8, !tbaa !70
  %93 = getelementptr inbounds nuw %struct.php_stream_sqlite3_data, ptr %92, i32 0, i32 0
  store ptr %91, ptr %93, align 8, !tbaa !130
  %94 = load i64, ptr %15, align 8, !tbaa !11
  %95 = trunc i64 %94 to i32
  %96 = load ptr, ptr %18, align 8, !tbaa !70
  %97 = getelementptr inbounds nuw %struct.php_stream_sqlite3_data, ptr %96, i32 0, i32 3
  store i32 %95, ptr %97, align 8, !tbaa !132
  %98 = load ptr, ptr %18, align 8, !tbaa !70
  %99 = getelementptr inbounds nuw %struct.php_stream_sqlite3_data, ptr %98, i32 0, i32 1
  store i64 0, ptr %99, align 8, !tbaa !133
  %100 = load ptr, ptr %17, align 8, !tbaa !128
  %101 = call i32 @sqlite3_blob_bytes(ptr noundef %100)
  %102 = sext i32 %101 to i64
  %103 = load ptr, ptr %18, align 8, !tbaa !70
  %104 = getelementptr inbounds nuw %struct.php_stream_sqlite3_data, ptr %103, i32 0, i32 2
  store i64 %102, ptr %104, align 8, !tbaa !134
  %105 = load i64, ptr %16, align 8, !tbaa !11
  %106 = icmp ne i64 %105, 0
  br i1 %106, label %107, label %108

107:                                              ; preds = %89
  store ptr @.str.31, ptr %10, align 8, !tbaa !62
  br label %108

108:                                              ; preds = %107, %89
  %109 = load ptr, ptr %18, align 8, !tbaa !70
  %110 = load ptr, ptr %10, align 8, !tbaa !62
  %111 = call ptr @_php_stream_alloc(ptr noundef @php_stream_sqlite3_ops, ptr noundef %109, ptr noundef null, ptr noundef %110)
  store ptr %111, ptr %19, align 8, !tbaa !135
  %112 = load ptr, ptr %19, align 8, !tbaa !135
  %113 = icmp ne ptr %112, null
  br i1 %113, label %114, label %131

114:                                              ; preds = %108
  br label %115

115:                                              ; preds = %114
  call void @llvm.lifetime.start.p0(i64 8, ptr %21) #15
  %116 = load ptr, ptr %4, align 8, !tbaa !9
  store ptr %116, ptr %21, align 8, !tbaa !9
  %117 = load ptr, ptr %19, align 8, !tbaa !135
  %118 = getelementptr inbounds nuw %struct._php_stream, ptr %117, i32 0, i32 10
  %119 = load ptr, ptr %118, align 8, !tbaa !137
  %120 = load ptr, ptr %21, align 8, !tbaa !9
  %121 = getelementptr inbounds nuw %struct._zval_struct, ptr %120, i32 0, i32 0
  store ptr %119, ptr %121, align 8, !tbaa !13
  %122 = load ptr, ptr %21, align 8, !tbaa !9
  %123 = getelementptr inbounds nuw %struct._zval_struct, ptr %122, i32 0, i32 1
  store i32 265, ptr %123, align 8, !tbaa !13
  call void @llvm.lifetime.end.p0(i64 8, ptr %21) #15
  br label %124

124:                                              ; preds = %115
  br label %125

125:                                              ; preds = %124
  %126 = load ptr, ptr %19, align 8, !tbaa !135
  %127 = getelementptr inbounds nuw %struct._php_stream, ptr %126, i32 0, i32 7
  %128 = load i16, ptr %127, align 8
  %129 = and i16 %128, -17
  %130 = or i16 %129, 16
  store i16 %130, ptr %127, align 8
  br label %140

131:                                              ; preds = %108
  br label %132

132:                                              ; preds = %131
  br label %133

133:                                              ; preds = %132
  %134 = load ptr, ptr %4, align 8, !tbaa !9
  %135 = getelementptr inbounds nuw %struct._zval_struct, ptr %134, i32 0, i32 1
  store i32 2, ptr %135, align 8, !tbaa !13
  br label %136

136:                                              ; preds = %133
  br label %137

137:                                              ; preds = %136
  store i32 1, ptr %20, align 4
  br label %141

138:                                              ; No predecessors!
  br label %139

139:                                              ; preds = %138
  br label %140

140:                                              ; preds = %139, %125
  store i32 0, ptr %20, align 4
  br label %141

141:                                              ; preds = %140, %137, %86, %49, %35
  call void @llvm.lifetime.end.p0(i64 8, ptr %19) #15
  call void @llvm.lifetime.end.p0(i64 8, ptr %18) #15
  call void @llvm.lifetime.end.p0(i64 8, ptr %17) #15
  call void @llvm.lifetime.end.p0(i64 8, ptr %16) #15
  call void @llvm.lifetime.end.p0(i64 8, ptr %15) #15
  call void @llvm.lifetime.end.p0(i64 8, ptr %14) #15
  call void @llvm.lifetime.end.p0(i64 8, ptr %13) #15
  call void @llvm.lifetime.end.p0(i64 8, ptr %12) #15
  call void @llvm.lifetime.end.p0(i64 8, ptr %11) #15
  call void @llvm.lifetime.end.p0(i64 8, ptr %10) #15
  call void @llvm.lifetime.end.p0(i64 8, ptr %9) #15
  call void @llvm.lifetime.end.p0(i64 8, ptr %8) #15
  call void @llvm.lifetime.end.p0(i64 8, ptr %7) #15
  call void @llvm.lifetime.end.p0(i64 8, ptr %6) #15
  call void @llvm.lifetime.end.p0(i64 8, ptr %5) #15
  %142 = load i32, ptr %20, align 4
  switch i32 %142, label %144 [
    i32 0, label %143
    i32 1, label %143
  ]

143:                                              ; preds = %141, %141
  ret void

144:                                              ; preds = %141
  unreachable
}