; Function Attrs: nounwind uwtable
define hidden void @zim_SQLite3_openBlob(ptr noundef readonly captures(none) %0, ptr noundef writeonly captures(none) %1) #0 {
  %3 = alloca ptr, align 8
  %4 = alloca ptr, align 8
  %5 = alloca ptr, align 8
  %6 = alloca i64, align 8
  %7 = alloca i64, align 8
  %8 = alloca i64, align 8
  %9 = alloca i64, align 8
  %10 = alloca i64, align 8
  %11 = alloca ptr, align 8
  %12 = getelementptr inbounds nuw i8, ptr %0, i64 32
  call void @llvm.lifetime.start.p0(i64 8, ptr nonnull %3) #17
  call void @llvm.lifetime.start.p0(i64 8, ptr nonnull %4) #17
  call void @llvm.lifetime.start.p0(i64 8, ptr nonnull %5) #17
  store ptr @.str.27, ptr %5, align 8, !tbaa !58
  call void @llvm.lifetime.start.p0(i64 8, ptr nonnull %6) #17
  call void @llvm.lifetime.start.p0(i64 8, ptr nonnull %7) #17
  call void @llvm.lifetime.start.p0(i64 8, ptr nonnull %8) #17
  call void @llvm.lifetime.start.p0(i64 8, ptr nonnull %9) #17
  call void @llvm.lifetime.start.p0(i64 8, ptr nonnull %10) #17
  store i64 1, ptr %10, align 8, !tbaa !4
  call void @llvm.lifetime.start.p0(i64 8, ptr nonnull %11) #17
  store ptr null, ptr %11, align 8, !tbaa !119
  %13 = load ptr, ptr %12, align 8, !tbaa !8
  %14 = getelementptr inbounds i8, ptr %13, i64 -128
  %15 = getelementptr inbounds nuw i8, ptr %0, i64 44
  %16 = load i32, ptr %15, align 4, !tbaa !8
  %17 = call i32 (i32, ptr, ...) @zend_parse_parameters(i32 noundef %16, ptr noundef nonnull @.str.29, ptr noundef nonnull %3, ptr noundef nonnull %6, ptr noundef nonnull %4, ptr noundef nonnull %7, ptr noundef nonnull %9, ptr noundef nonnull %5, ptr noundef nonnull %8, ptr noundef nonnull %10) #17
  %18 = icmp eq i32 %17, -1
  br i1 %18, label %19, label %22

19:                                               ; preds = %2
  %20 = load ptr, ptr getelementptr inbounds nuw (i8, ptr @executor_globals, i64 960), align 8, !tbaa !9
  %21 = icmp ne ptr %20, null
  call void @llvm.assume(i1 %21)
  br label %65

22:                                               ; preds = %2
  %23 = load i8, ptr %14, align 8, !tbaa !44, !range !55, !noundef !56
  %24 = trunc nuw i8 %23 to i1
  br i1 %24, label %28, label %25

25:                                               ; preds = %22
  call void (ptr, ptr, ...) @zend_throw_error(ptr noundef null, ptr noundef nonnull @.str.8) #17
  %26 = load ptr, ptr getelementptr inbounds nuw (i8, ptr @executor_globals, i64 960), align 8, !tbaa !9
  %27 = icmp ne ptr %26, null
  call void @llvm.assume(i1 %27)
  br label %65

28:                                               ; preds = %22
  %29 = load i64, ptr %10, align 8, !tbaa !4
  %30 = and i64 %29, 2
  %.lobit = lshr exact i64 %30, 1
  %31 = trunc nuw nsw i64 %.lobit to i32
  %32 = getelementptr inbounds i8, ptr %13, i64 -120
  %33 = load ptr, ptr %32, align 8, !tbaa !59
  %34 = load ptr, ptr %5, align 8, !tbaa !58
  %35 = load ptr, ptr %3, align 8, !tbaa !58
  %36 = load ptr, ptr %4, align 8, !tbaa !58
  %37 = load i64, ptr %9, align 8, !tbaa !4
  %38 = call i32 @sqlite3_blob_open(ptr noundef %33, ptr noundef %34, ptr noundef %35, ptr noundef %36, i64 noundef %37, i32 noundef %31, ptr noundef nonnull %11) #17
  %.not27 = icmp eq i32 %38, 0
  br i1 %.not27, label %45, label %39

39:                                               ; preds = %28
  %40 = load ptr, ptr %32, align 8, !tbaa !59
  %41 = call i32 @sqlite3_errcode(ptr noundef %40) #17
  %42 = load ptr, ptr %32, align 8, !tbaa !59
  %43 = call ptr @sqlite3_errmsg(ptr noundef %42) #17
  call void (ptr, i32, ptr, ...) @php_sqlite3_error(ptr noundef nonnull %14, i32 noundef %41, ptr noundef nonnull @.str.30, ptr noundef %43)
  %44 = getelementptr inbounds nuw i8, ptr %1, i64 8
  store i32 2, ptr %44, align 8, !tbaa !8
  br label %65

45:                                               ; preds = %28
  %.not26.not = icmp eq i64 %30, 0
  %46 = call noalias ptr @_emalloc_32() #17
  %47 = load ptr, ptr %11, align 8, !tbaa !119
  store ptr %47, ptr %46, align 8, !tbaa !121
  %48 = load i64, ptr %10, align 8, !tbaa !4
  %49 = trunc i64 %48 to i32
  %50 = getelementptr inbounds nuw i8, ptr %46, i64 24
  store i32 %49, ptr %50, align 8, !tbaa !123
  %51 = getelementptr inbounds nuw i8, ptr %46, i64 8
  store i64 0, ptr %51, align 8, !tbaa !124
  %52 = call i32 @sqlite3_blob_bytes(ptr noundef %47) #17
  %53 = sext i32 %52 to i64
  %54 = getelementptr inbounds nuw i8, ptr %46, i64 16
  store i64 %53, ptr %54, align 8, !tbaa !125
  %spec.select = select i1 %.not26.not, ptr @.str.28, ptr @.str.31
  %55 = call ptr @_php_stream_alloc(ptr noundef nonnull @php_stream_sqlite3_ops, ptr noundef nonnull %46, ptr noundef null, ptr noundef nonnull %spec.select) #17
  %.not28 = icmp eq ptr %55, null
  br i1 %.not28, label %63, label %56

56:                                               ; preds = %45
  %57 = getelementptr inbounds nuw i8, ptr %55, i64 120
  %58 = load ptr, ptr %57, align 8, !tbaa !126
  store ptr %58, ptr %1, align 8, !tbaa !8
  %59 = getelementptr inbounds nuw i8, ptr %1, i64 8
  store i32 265, ptr %59, align 8, !tbaa !8
  %60 = getelementptr inbounds nuw i8, ptr %55, i64 96
  %61 = load i16, ptr %60, align 8
  %62 = or i16 %61, 16
  store i16 %62, ptr %60, align 8
  br label %65

63:                                               ; preds = %45
  %64 = getelementptr inbounds nuw i8, ptr %1, i64 8
  store i32 2, ptr %64, align 8, !tbaa !8
  br label %65

65:                                               ; preds = %56, %63, %39, %25, %19
  call void @llvm.lifetime.end.p0(i64 8, ptr nonnull %11) #17
  call void @llvm.lifetime.end.p0(i64 8, ptr nonnull %10) #17
  call void @llvm.lifetime.end.p0(i64 8, ptr nonnull %9) #17
  call void @llvm.lifetime.end.p0(i64 8, ptr nonnull %8) #17
  call void @llvm.lifetime.end.p0(i64 8, ptr nonnull %7) #17
  call void @llvm.lifetime.end.p0(i64 8, ptr nonnull %6) #17
  call void @llvm.lifetime.end.p0(i64 8, ptr nonnull %5) #17
  call void @llvm.lifetime.end.p0(i64 8, ptr nonnull %4) #17
  call void @llvm.lifetime.end.p0(i64 8, ptr nonnull %3) #17
  ret void
}